; Function Attrs: nofree nosync nounwind memory(readwrite, inaccessiblemem: none) uwtable
define range(i32 0, 1048576) i32 @Abc_NtkBalanceLevel_rec(ptr noundef captures(none) %0) local_unnamed_addr #5 {
  %2 = getelementptr inbounds nuw i8, ptr %0, i64 20
  %3 = load i32, ptr %2, align 4
  %.not = icmp ult i32 %3, 4096
  br i1 %.not, label %6, label %4

4:                                                ; preds = %1
  %5 = lshr i32 %3, 12
  br label %32

6:                                                ; preds = %1
  %7 = and i32 %3, 15
  switch i32 %7, label %8 [
    i32 5, label %32
    i32 2, label %32
  ]

8:                                                ; preds = %6
  %9 = getelementptr inbounds nuw i8, ptr %0, i64 64
  %10 = load ptr, ptr %9, align 8, !tbaa !34
  %11 = getelementptr i8, ptr %10, i64 4
  %.val26 = load i32, ptr %11, align 4, !tbaa !24
  %12 = icmp sgt i32 %.val26, 0
  br i1 %12, label %.lr.ph, label %.critedge

.lr.ph:                                           ; preds = %8
  %13 = getelementptr i8, ptr %10, i64 8
  br label %14

14:                                               ; preds = %.lr.ph, %14
  %indvars.iv = phi i64 [ 0, %.lr.ph ], [ %indvars.iv.next, %14 ]
  %.028 = phi i32 [ 0, %.lr.ph ], [ %spec.select, %14 ]
  %.val22 = load ptr, ptr %13, align 8, !tbaa !26
  %15 = getelementptr inbounds nuw ptr, ptr %.val22, i64 %indvars.iv
  %16 = load ptr, ptr %15, align 8, !tbaa !27
  %17 = ptrtoint ptr %16 to i64
  %18 = and i64 %17, -2
  %19 = inttoptr i64 %18 to ptr
  %20 = tail call i32 @Abc_NtkBalanceLevel_rec(ptr noundef %19)
  %21 = getelementptr inbounds nuw i8, ptr %19, i64 20
  %22 = load i32, ptr %21, align 4
  %23 = lshr i32 %22, 12
  %spec.select = tail call i32 @llvm.umax.i32(i32 %.028, i32 %23)
  %indvars.iv.next = add nuw nsw i64 %indvars.iv, 1
  %.val = load i32, ptr %11, align 4, !tbaa !24
  %24 = sext i32 %.val to i64
  %25 = icmp slt i64 %indvars.iv.next, %24
  br i1 %25, label %14, label %.critedge.loopexit, !llvm.loop !66

.critedge.loopexit:                               ; preds = %14
  %.pre = load i32, ptr %2, align 4
  %26 = shl nuw i32 %spec.select, 12
  %27 = add i32 %26, 4096
  br label %.critedge

.critedge:                                        ; preds = %.critedge.loopexit, %8
  %28 = phi i32 [ %3, %8 ], [ %.pre, %.critedge.loopexit ]
  %.0.lcssa = phi i32 [ 4096, %8 ], [ %27, %.critedge.loopexit ]
  %29 = and i32 %28, 4095
  %30 = or disjoint i32 %29, %.0.lcssa
  store i32 %30, ptr %2, align 4
  %31 = lshr exact i32 %.0.lcssa, 12
  br label %32

32:                                               ; preds = %6, %6, %.critedge, %4
  %.018 = phi i32 [ %5, %4 ], [ %31, %.critedge ], [ 0, %6 ], [ 0, %6 ]
  ret i32 %.018
}